target datalayout = "e-m:e-p270:32:32-p271:32:32-p272:64:64-i64:64-i128:128-f80:128-n8:16:32:64-S128"
target triple = "x86_64-pc-linux-gnu"

; Function Attrs: inlinehint mustprogress nounwind uwtable
define internal noundef signext i8 @_ZL9U_FAILURE10UErrorCode(i32 noundef %0) #4 {
  %2 = alloca i32, align 4
  store i32 %0, ptr %2, align 4, !tbaa !46
  %3 = load i32, ptr %2, align 4, !tbaa !46
  %4 = icmp sgt i32 %3, 0
  %5 = zext i1 %4 to i8
  ret i8 %5
}

; Function Attrs: mustprogress uwtable
define i32 @umsg_autoQuoteApostrophe_77(ptr noundef %0, i32 noundef %1, ptr noundef %2, i32 noundef %3, ptr noundef %4) #0 {
  %6 = alloca i32, align 4
  %7 = alloca ptr, align 8
  %8 = alloca i32, align 4
  %9 = alloca ptr, align 8
  %10 = alloca i32, align 4
  %11 = alloca ptr, align 8
  %12 = alloca i32, align 4
  %13 = alloca i32, align 4
  %14 = alloca i32, align 4
  %15 = alloca i32, align 4
  %16 = alloca i32, align 4
  %17 = alloca i16, align 2
  store ptr %0, ptr %7, align 8, !tbaa !38
  store i32 %1, ptr %8, align 4, !tbaa !35
  store ptr %2, ptr %9, align 8, !tbaa !38
  store i32 %3, ptr %10, align 4, !tbaa !35
  store ptr %4, ptr %11, align 8, !tbaa !40
  call void @llvm.lifetime.start.p0(i64 4, ptr %12) #13
  store i32 0, ptr %12, align 4, !tbaa !35
  call void @llvm.lifetime.start.p0(i64 4, ptr %13) #13
  store i32 0, ptr %13, align 4, !tbaa !35
  call void @llvm.lifetime.start.p0(i64 4, ptr %14) #13
  store i32 0, ptr %14, align 4, !tbaa !35
  %18 = load ptr, ptr %11, align 8, !tbaa !40
  %19 = icmp eq ptr %18, null
  br i1 %19, label %25, label %20

20:                                               ; preds = %5
  %21 = load ptr, ptr %11, align 8, !tbaa !40
  %22 = load i32, ptr %21, align 4, !tbaa !46
  %23 = call noundef signext i8 @_ZL9U_FAILURE10UErrorCode(i32 noundef %22)
  %24 = icmp ne i8 %23, 0
  br i1 %24, label %25, label %26

25:                                               ; preds = %20, %5
  store i32 -1, ptr %6, align 4
  store i32 1, ptr %15, align 4
  br label %150

26:                                               ; preds = %20
  %27 = load ptr, ptr %7, align 8, !tbaa !38
  %28 = icmp eq ptr %27, null
  br i1 %28, label %38, label %29

29:                                               ; preds = %26
  %30 = load i32, ptr %8, align 4, !tbaa !35
  %31 = icmp slt i32 %30, -1
  br i1 %31, label %38, label %32

32:                                               ; preds = %29
  %33 = load ptr, ptr %9, align 8, !tbaa !38
  %34 = icmp eq ptr %33, null
  br i1 %34, label %35, label %40

35:                                               ; preds = %32
  %36 = load i32, ptr %10, align 4, !tbaa !35
  %37 = icmp sgt i32 %36, 0
  br i1 %37, label %38, label %40

38:                                               ; preds = %35, %29, %26
  %39 = load ptr, ptr %11, align 8, !tbaa !40
  store i32 1, ptr %39, align 4, !tbaa !46
  store i32 -1, ptr %6, align 4
  store i32 1, ptr %15, align 4
  br label %150

40:                                               ; preds = %35, %32
  %41 = load i32, ptr %8, align 4, !tbaa !35
  %42 = icmp eq i32 %41, -1
  br i1 %42, label %43, label %46

43:                                               ; preds = %40
  %44 = load ptr, ptr %7, align 8, !tbaa !38
  %45 = call i32 @u_strlen_77(ptr noundef %44)
  store i32 %45, ptr %8, align 4, !tbaa !35
  br label %46

46:                                               ; preds = %43, %40
  call void @llvm.lifetime.start.p0(i64 4, ptr %16) #13
  store i32 0, ptr %16, align 4, !tbaa !35
  br label %47

47:                                               ; preds = %121, %46
  %48 = load i32, ptr %16, align 4, !tbaa !35
  %49 = load i32, ptr %8, align 4, !tbaa !35
  %50 = icmp slt i32 %48, %49
  br i1 %50, label %52, label %51

51:                                               ; preds = %47
  store i32 2, ptr %15, align 4
  call void @llvm.lifetime.end.p0(i64 4, ptr %16) #13
  br label %124

52:                                               ; preds = %47
  call void @llvm.lifetime.start.p0(i64 2, ptr %17) #13
  %53 = load ptr, ptr %7, align 8, !tbaa !38
  %54 = load i32, ptr %16, align 4, !tbaa !35
  %55 = sext i32 %54 to i64
  %56 = getelementptr inbounds i16, ptr %53, i64 %55
  %57 = load i16, ptr %56, align 2, !tbaa !63
  store i16 %57, ptr %17, align 2, !tbaa !63
  %58 = load i32, ptr %12, align 4, !tbaa !35
  switch i32 %58, label %105 [
    i32 0, label %59
    i32 1, label %67
    i32 2, label %87
    i32 3, label %92
  ]

59:                                               ; preds = %52
  %60 = load i16, ptr %17, align 2, !tbaa !63
  %61 = zext i16 %60 to i32
  switch i32 %61, label %66 [
    i32 39, label %62
    i32 123, label %63
  ]

62:                                               ; preds = %59
  store i32 1, ptr %12, align 4, !tbaa !35
  br label %66

63:                                               ; preds = %59
  store i32 3, ptr %12, align 4, !tbaa !35
  %64 = load i32, ptr %13, align 4, !tbaa !35
  %65 = add nsw i32 %64, 1
  store i32 %65, ptr %13, align 4, !tbaa !35
  br label %66

66:                                               ; preds = %59, %63, %62
  br label %106

67:                                               ; preds = %52
  %68 = load i16, ptr %17, align 2, !tbaa !63
  %69 = zext i16 %68 to i32
  switch i32 %69, label %72 [
    i32 39, label %70
    i32 123, label %71
    i32 125, label %71
  ]

70:                                               ; preds = %67
  store i32 0, ptr %12, align 4, !tbaa !35
  br label %86

71:                                               ; preds = %67, %67
  store i32 2, ptr %12, align 4, !tbaa !35
  br label %86

72:                                               ; preds = %67
  %73 = load i32, ptr %14, align 4, !tbaa !35
  %74 = load i32, ptr %10, align 4, !tbaa !35
  %75 = icmp slt i32 %73, %74
  br i1 %75, label %76, label %82

76:                                               ; preds = %72
  %77 = load ptr, ptr %9, align 8, !tbaa !38
  %78 = load i32, ptr %14, align 4, !tbaa !35
  %79 = add nsw i32 %78, 1
  store i32 %79, ptr %14, align 4, !tbaa !35
  %80 = sext i32 %78 to i64
  %81 = getelementptr inbounds i16, ptr %77, i64 %80
  store i16 39, ptr %81, align 2, !tbaa !63
  br label %85

82:                                               ; preds = %72
  %83 = load i32, ptr %14, align 4, !tbaa !35
  %84 = add nsw i32 %83, 1
  store i32 %84, ptr %14, align 4, !tbaa !35
  br label %85

85:                                               ; preds = %82, %76
  store i32 0, ptr %12, align 4, !tbaa !35
  br label %86

86:                                               ; preds = %85, %71, %70
  br label %106

87:                                               ; preds = %52
  %88 = load i16, ptr %17, align 2, !tbaa !63
  %89 = zext i16 %88 to i32
  switch i32 %89, label %91 [
    i32 39, label %90
  ]

90:                                               ; preds = %87
  store i32 0, ptr %12, align 4, !tbaa !35
  br label %91

91:                                               ; preds = %87, %90
  br label %106

92:                                               ; preds = %52
  %93 = load i16, ptr %17, align 2, !tbaa !63
  %94 = zext i16 %93 to i32
  switch i32 %94, label %104 [
    i32 123, label %95
    i32 125, label %98
  ]

95:                                               ; preds = %92
  %96 = load i32, ptr %13, align 4, !tbaa !35
  %97 = add nsw i32 %96, 1
  store i32 %97, ptr %13, align 4, !tbaa !35
  br label %104

98:                                               ; preds = %92
  %99 = load i32, ptr %13, align 4, !tbaa !35
  %100 = add nsw i32 %99, -1
  store i32 %100, ptr %13, align 4, !tbaa !35
  %101 = icmp eq i32 %100, 0
  br i1 %101, label %102, label %103

102:                                              ; preds = %98
  store i32 0, ptr %12, align 4, !tbaa !35
  br label %103

103:                                              ; preds = %102, %98
  br label %104

104:                                              ; preds = %92, %103, %95
  br label %106

105:                                              ; preds = %52
  br label %106

106:                                              ; preds = %105, %104, %91, %86, %66
  %107 = load i32, ptr %14, align 4, !tbaa !35
  %108 = load i32, ptr %10, align 4, !tbaa !35
  %109 = icmp slt i32 %107, %108
  br i1 %109, label %110, label %117

110:                                              ; preds = %106
  %111 = load i16, ptr %17, align 2, !tbaa !63
  %112 = load ptr, ptr %9, align 8, !tbaa !38
  %113 = load i32, ptr %14, align 4, !tbaa !35
  %114 = add nsw i32 %113, 1
  store i32 %114, ptr %14, align 4, !tbaa !35
  %115 = sext i32 %113 to i64
  %116 = getelementptr inbounds i16, ptr %112, i64 %115
  store i16 %111, ptr %116, align 2, !tbaa !63
  br label %120

117:                                              ; preds = %106
  %118 = load i32, ptr %14, align 4, !tbaa !35
  %119 = add nsw i32 %118, 1
  store i32 %119, ptr %14, align 4, !tbaa !35
  br label %120

120:                                              ; preds = %117, %110
  call void @llvm.lifetime.end.p0(i64 2, ptr %17) #13
  br label %121

121:                                              ; preds = %120
  %122 = load i32, ptr %16, align 4, !tbaa !35
  %123 = add nsw i32 %122, 1
  store i32 %123, ptr %16, align 4, !tbaa !35
  br label %47, !llvm.loop !91

124:                                              ; preds = %51
  %125 = load i32, ptr %12, align 4, !tbaa !35
  %126 = icmp eq i32 %125, 1
  br i1 %126, label %130, label %127

127:                                              ; preds = %124
  %128 = load i32, ptr %12, align 4, !tbaa !35
  %129 = icmp eq i32 %128, 2
  br i1 %129, label %130, label %144

130:                                              ; preds = %127, %124
  %131 = load i32, ptr %14, align 4, !tbaa !35
  %132 = load i32, ptr %10, align 4, !tbaa !35
  %133 = icmp slt i32 %131, %132
  br i1 %133, label %134, label %140

134:                                              ; preds = %130
  %135 = load ptr, ptr %9, align 8, !tbaa !38
  %136 = load i32, ptr %14, align 4, !tbaa !35
  %137 = add nsw i32 %136, 1
  store i32 %137, ptr %14, align 4, !tbaa !35
  %138 = sext i32 %136 to i64
  %139 = getelementptr inbounds i16, ptr %135, i64 %138
  store i16 39, ptr %139, align 2, !tbaa !63
  br label %143

140:                                              ; preds = %130
  %141 = load i32, ptr %14, align 4, !tbaa !35
  %142 = add nsw i32 %141, 1
  store i32 %142, ptr %14, align 4, !tbaa !35
  br label %143

143:                                              ; preds = %140, %134
  br label %144

144:                                              ; preds = %143, %127
  %145 = load ptr, ptr %9, align 8, !tbaa !38
  %146 = load i32, ptr %10, align 4, !tbaa !35
  %147 = load i32, ptr %14, align 4, !tbaa !35
  %148 = load ptr, ptr %11, align 8, !tbaa !40
  %149 = call i32 @u_terminateUChars_77(ptr noundef %145, i32 noundef %146, i32 noundef %147, ptr noundef %148)
  store i32 %149, ptr %6, align 4
  store i32 1, ptr %15, align 4
  br label %150

150:                                              ; preds = %144, %38, %25
  call void @llvm.lifetime.end.p0(i64 4, ptr %14) #13
  call void @llvm.lifetime.end.p0(i64 4, ptr %13) #13
  call void @llvm.lifetime.end.p0(i64 4, ptr %12) #13
  %151 = load i32, ptr %6, align 4
  ret i32 %151
}