; Function Attrs: mustprogress uwtable
define i32 @umsg_autoQuoteApostrophe_77(ptr noundef %0, i32 noundef %1, ptr noundef %2, i32 noundef %3, ptr noundef %4) local_unnamed_addr #1 {
  %6 = icmp eq ptr %4, null
  br i1 %6, label %59, label %7

7:                                                ; preds = %5
  %8 = load i32, ptr %4, align 4, !tbaa !36
  %9 = icmp slt i32 %8, 1
  br i1 %9, label %10, label %59

10:                                               ; preds = %7
  %11 = icmp eq ptr %0, null
  %12 = icmp slt i32 %1, -1
  %or.cond = or i1 %11, %12
  br i1 %or.cond, label %16, label %13

13:                                               ; preds = %10
  %14 = icmp eq ptr %2, null
  %15 = icmp sgt i32 %3, 0
  %or.cond3 = and i1 %14, %15
  br i1 %or.cond3, label %16, label %17

16:                                               ; preds = %13, %10
  store i32 1, ptr %4, align 4, !tbaa !36
  br label %59

17:                                               ; preds = %13
  %18 = icmp eq i32 %1, -1
  br i1 %18, label %19, label %21

19:                                               ; preds = %17
  %20 = tail call i32 @u_strlen_77(ptr noundef nonnull %0)
  br label %21

21:                                               ; preds = %19, %17
  %.055 = phi i32 [ %20, %19 ], [ %1, %17 ]
  %22 = icmp sgt i32 %.055, 0
  br i1 %22, label %.lr.ph.preheader, label %._crit_edge.thread

.lr.ph.preheader:                                 ; preds = %21
  %wide.trip.count = zext nneg i32 %.055 to i64
  br label %.lr.ph

._crit_edge:                                      ; preds = %51
  %23 = add nsw i32 %.154, -1
  %24 = icmp ult i32 %23, 2
  br i1 %24, label %52, label %._crit_edge.thread

.lr.ph:                                           ; preds = %.lr.ph.preheader, %51
  %indvars.iv = phi i64 [ 0, %.lr.ph.preheader ], [ %indvars.iv.next, %51 ]
  %.05067 = phi i32 [ 0, %.lr.ph.preheader ], [ %.3, %51 ]
  %.05166 = phi i32 [ 0, %.lr.ph.preheader ], [ %.152, %51 ]
  %.05365 = phi i32 [ 0, %.lr.ph.preheader ], [ %.154, %51 ]
  %25 = getelementptr inbounds nuw i16, ptr %0, i64 %indvars.iv
  %26 = load i16, ptr %25, align 2, !tbaa !55
  switch i32 %.05365, label %default.unreachable71 [
    i32 0, label %27
    i32 1, label %31
    i32 2, label %39
    i32 3, label %40
  ]

27:                                               ; preds = %.lr.ph
  switch i16 %26, label %46 [
    i16 39, label %28
    i16 123, label %29
  ]

28:                                               ; preds = %27
  br label %46

29:                                               ; preds = %27
  %30 = add nsw i32 %.05166, 1
  br label %46

31:                                               ; preds = %.lr.ph
  switch i16 %26, label %33 [
    i16 39, label %46
    i16 123, label %32
    i16 125, label %32
  ]

32:                                               ; preds = %31, %31
  br label %46

33:                                               ; preds = %31
  %34 = icmp slt i32 %.05067, %3
  br i1 %34, label %35, label %38

35:                                               ; preds = %33
  %36 = sext i32 %.05067 to i64
  %37 = getelementptr inbounds i16, ptr %2, i64 %36
  store i16 39, ptr %37, align 2, !tbaa !55
  br label %38

38:                                               ; preds = %33, %35
  %.2 = add nsw i32 %.05067, 1
  br label %46

39:                                               ; preds = %.lr.ph
  %cond = icmp eq i16 %26, 39
  %spec.select = select i1 %cond, i32 0, i32 2
  br label %46

40:                                               ; preds = %.lr.ph
  switch i16 %26, label %46 [
    i16 123, label %41
    i16 125, label %43
  ]

41:                                               ; preds = %40
  %42 = add nsw i32 %.05166, 1
  br label %46

43:                                               ; preds = %40
  %44 = add nsw i32 %.05166, -1
  %45 = icmp eq i32 %44, 0
  %spec.select61 = select i1 %45, i32 0, i32 3
  br label %46

default.unreachable71:                            ; preds = %.lr.ph
  unreachable

46:                                               ; preds = %43, %39, %31, %40, %41, %32, %38, %27, %28, %29
  %.154 = phi i32 [ 3, %40 ], [ 3, %41 ], [ 0, %38 ], [ 2, %32 ], [ 0, %27 ], [ 3, %29 ], [ 1, %28 ], [ 0, %31 ], [ %spec.select, %39 ], [ %spec.select61, %43 ]
  %.152 = phi i32 [ %.05166, %40 ], [ %42, %41 ], [ %.05166, %38 ], [ %.05166, %32 ], [ %.05166, %27 ], [ %30, %29 ], [ %.05166, %28 ], [ %.05166, %31 ], [ %.05166, %39 ], [ %44, %43 ]
  %.1 = phi i32 [ %.05067, %40 ], [ %.05067, %41 ], [ %.2, %38 ], [ %.05067, %32 ], [ %.05067, %27 ], [ %.05067, %29 ], [ %.05067, %28 ], [ %.05067, %31 ], [ %.05067, %39 ], [ %.05067, %43 ]
  %47 = icmp slt i32 %.1, %3
  br i1 %47, label %48, label %51

48:                                               ; preds = %46
  %49 = sext i32 %.1 to i64
  %50 = getelementptr inbounds i16, ptr %2, i64 %49
  store i16 %26, ptr %50, align 2, !tbaa !55
  br label %51

51:                                               ; preds = %46, %48
  %.3 = add nsw i32 %.1, 1
  %indvars.iv.next = add nuw nsw i64 %indvars.iv, 1
  %exitcond.not = icmp eq i64 %indvars.iv.next, %wide.trip.count
  br i1 %exitcond.not, label %._crit_edge, label %.lr.ph, !llvm.loop !70

52:                                               ; preds = %._crit_edge
  %53 = icmp slt i32 %.3, %3
  %54 = add nsw i32 %.1, 2
  br i1 %53, label %55, label %._crit_edge.thread

55:                                               ; preds = %52
  %56 = sext i32 %.3 to i64
  %57 = getelementptr inbounds i16, ptr %2, i64 %56
  store i16 39, ptr %57, align 2, !tbaa !55
  br label %._crit_edge.thread

._crit_edge.thread:                               ; preds = %52, %21, %55, %._crit_edge
  %.4 = phi i32 [ %54, %55 ], [ %.3, %._crit_edge ], [ 0, %21 ], [ %54, %52 ]
  %58 = tail call i32 @u_terminateUChars_77(ptr noundef %2, i32 noundef %3, i32 noundef %.4, ptr noundef nonnull %4)
  br label %59

59:                                               ; preds = %5, %7, %._crit_edge.thread, %16
  %.0 = phi i32 [ -1, %16 ], [ %58, %._crit_edge.thread ], [ -1, %7 ], [ -1, %5 ]
  ret i32 %.0
}